; Function Attrs: null_pointer_is_valid sspstrong uwtable
define internal fastcc i32 @dissect_continuation_packet(ptr noundef %0, ptr %.8.val, ptr noundef %1) unnamed_addr #0 {
  tail call void @col_set_str(ptr noundef %.8.val, i32 noundef 25, ptr noundef nonnull @.str.280)
  %.not = icmp eq ptr %1, null
  br i1 %.not, label %10, label %3

3:                                                ; preds = %2
  %4 = load i32, ptr @proto_nbss, align 4
  %5 = tail call ptr @proto_tree_add_item(ptr noundef nonnull %1, i32 noundef %4, ptr noundef %0, i32 noundef 0, i32 noundef -1, i32 noundef 0)
  %6 = load i32, ptr @ett_nbss, align 4
  %7 = tail call ptr @proto_item_add_subtree(ptr noundef %5, i32 noundef %6)
  %8 = load i32, ptr @hf_nbss_continuation_data, align 4
  %9 = tail call ptr @proto_tree_add_item(ptr noundef %7, i32 noundef %8, ptr noundef %0, i32 noundef 0, i32 noundef -1, i32 noundef 0)
  br label %10

10:                                               ; preds = %3, %2
  %11 = tail call i32 @tvb_captured_length(ptr noundef %0)
  ret i32 %11
}